CCS PCM C Compiler, Version 4.057, 51112               17-Jun-15 22:43

               Filename: main.lst

               ROM used: 100 words (2%)
                         Largest free fragment is 2048
               RAM used: 6 (3%) at main() level
                         7 (4%) worst case
               Stack:    1 locations

*
0000:  MOVLW  00
0001:  MOVWF  0A
0002:  GOTO   017
0003:  NOP
.................... #include "C:\Users\ccsn\Desktop\pic\PROGRAMS\port rotate\main.h" 
.................... #include <16C73.h> 
.................... //////// Standard Header file for the PIC16C73 device //////////////// 
.................... #device PIC16C73 
.................... #list 
....................  
.................... #device adc=8 
....................  
.................... #FUSES NOWDT                 	//No Watch Dog Timer 
.................... #FUSES LP                    	//Low power osc < 200 khz 
.................... #FUSES NOPUT                 	//No Power Up Timer 
.................... #FUSES PROTECT               	//Code protected from reads 
....................  
.................... #use delay(clock=20000000) 
0004:  MOVLW  27
0005:  MOVWF  04
0006:  MOVF   00,W
0007:  BTFSC  03.2
0008:  GOTO   016
0009:  MOVLW  06
000A:  MOVWF  21
000B:  CLRF   20
000C:  DECFSZ 20,F
000D:  GOTO   00C
000E:  DECFSZ 21,F
000F:  GOTO   00B
0010:  MOVLW  7B
0011:  MOVWF  20
0012:  DECFSZ 20,F
0013:  GOTO   012
0014:  DECFSZ 00,F
0015:  GOTO   009
0016:  RETLW  00
.................... #use rs232(baud=9600,parity=N,xmit=PIN_C6,rcv=PIN_C7,bits=8) 
....................  
....................  
....................  
....................  
.................... void main() 
.................... { 
0017:  CLRF   04
0018:  MOVLW  1F
0019:  ANDWF  03,F
001A:  MOVLW  81
001B:  BSF    03.5
001C:  MOVWF  19
001D:  MOVLW  A6
001E:  MOVWF  18
001F:  MOVLW  90
0020:  BCF    03.5
0021:  MOVWF  18
0022:  BSF    03.5
0023:  BSF    1F.0
0024:  BSF    1F.1
0025:  BSF    1F.2
....................    int i=1; 
0026:  MOVLW  01
0027:  BCF    03.5
0028:  MOVWF  26
....................    setup_adc_ports(NO_ANALOGS); 
0029:  BSF    03.5
002A:  BSF    1F.0
002B:  BSF    1F.1
002C:  BSF    1F.2
....................    setup_adc(ADC_OFF); 
002D:  BCF    03.5
002E:  BCF    1F.0
....................    setup_spi(SPI_SS_DISABLED); 
002F:  BCF    14.5
0030:  BSF    03.5
0031:  BCF    07.5
0032:  BSF    07.4
0033:  BCF    07.3
0034:  BCF    03.5
0035:  MOVWF  14
....................    setup_timer_0(RTCC_INTERNAL|RTCC_DIV_1); 
0036:  BSF    03.5
0037:  MOVF   01,W
0038:  ANDLW  C7
0039:  IORLW  08
003A:  MOVWF  01
....................    setup_timer_1(T1_DISABLED); 
003B:  BCF    03.5
003C:  CLRF   10
....................    setup_timer_2(T2_DISABLED,0,1); 
003D:  MOVLW  00
003E:  MOVWF  21
003F:  MOVWF  12
0040:  MOVLW  00
0041:  BSF    03.5
0042:  MOVWF  12
....................    set_tris_b(0x00); 
0043:  TRIS   6
....................  
....................    while(1) 
....................    { 
....................    while(i!=128) 
....................    { 
0044:  BCF    03.5
0045:  MOVF   26,W
0046:  SUBLW  80
0047:  BTFSC  03.2
0048:  GOTO   054
....................    OUTPUT_B(i); 
0049:  BSF    03.5
004A:  CLRF   06
004B:  BCF    03.5
004C:  MOVF   26,W
004D:  MOVWF  06
....................    DELAY_MS(10); 
004E:  MOVLW  0A
004F:  MOVWF  27
0050:  CALL   004
....................    i=i<<1; 
0051:  BCF    03.0
0052:  RLF    26,F
....................  
....................    } 
0053:  GOTO   045
....................    while(i!=1) 
....................    { 
0054:  DECFSZ 26,W
0055:  GOTO   057
0056:  GOTO   062
....................    OUTPUT_B(i); 
0057:  BSF    03.5
0058:  CLRF   06
0059:  BCF    03.5
005A:  MOVF   26,W
005B:  MOVWF  06
....................    DELAY_MS(10); 
005C:  MOVLW  0A
005D:  MOVWF  27
005E:  CALL   004
....................    i=i>>1; 
005F:  BCF    03.0
0060:  RRF    26,F
....................    } 
0061:  GOTO   054
....................    } 
0062:  GOTO   045
....................    // TODO: USER CODE!! 
....................  
.................... } 
0063:  SLEEP

Configuration Fuses:
   Word  1: 3FC0   LP NOWDT NOPUT PROTECT
